target datalayout = "e-m:e-p270:32:32-p271:32:32-p272:64:64-i64:64-i128:128-f80:128-n8:16:32:64-S128"
target triple = "x86_64-pc-linux-gnu"

%struct.H5D_chunk_rec_t = type { [33 x i64], i32, i32, i64 }
%struct.H5D_bt2_ctx_t = type { i32, i64, i64, i32, ptr }

; Function Attrs: nounwind uwtable
define internal i32 @H5D__bt2_unfilt_encode(ptr noundef %0, ptr noundef %1, ptr noundef %2) #0 {
  %4 = alloca ptr, align 8
  %5 = alloca ptr, align 8
  %6 = alloca ptr, align 8
  %7 = alloca ptr, align 8
  %8 = alloca ptr, align 8
  %9 = alloca i32, align 4
  %10 = alloca i64, align 8
  %11 = alloca i64, align 8
  %12 = alloca ptr, align 8
  store ptr %0, ptr %4, align 8
  store ptr %1, ptr %5, align 8
  store ptr %2, ptr %6, align 8
  %13 = load ptr, ptr %6, align 8
  store ptr %13, ptr %7, align 8
  %14 = load ptr, ptr %5, align 8
  store ptr %14, ptr %8, align 8
  %15 = load ptr, ptr %7, align 8
  %16 = getelementptr inbounds %struct.H5D_bt2_ctx_t, ptr %15, i32 0, i32 1
  %17 = load i64, ptr %16, align 8
  %18 = load ptr, ptr %8, align 8
  %19 = getelementptr inbounds %struct.H5D_chunk_rec_t, ptr %18, i32 0, i32 3
  %20 = load i64, ptr %19, align 8
  call void @H5F_addr_encode_len(i64 noundef %17, ptr noundef %4, i64 noundef %20)
  store i32 0, ptr %9, align 4
  br label %21

21:                                               ; preds = %64, %3
  %22 = load i32, ptr %9, align 4
  %23 = load ptr, ptr %7, align 8
  %24 = getelementptr inbounds %struct.H5D_bt2_ctx_t, ptr %23, i32 0, i32 3
  %25 = load i32, ptr %24, align 8
  %26 = icmp ult i32 %22, %25
  br i1 %26, label %27, label %67

27:                                               ; preds = %21
  br label %28

28:                                               ; preds = %27
  %29 = load ptr, ptr %8, align 8
  %30 = getelementptr inbounds %struct.H5D_chunk_rec_t, ptr %29, i32 0, i32 0
  %31 = load i32, ptr %9, align 4
  %32 = zext i32 %31 to i64
  %33 = getelementptr inbounds [33 x i64], ptr %30, i64 0, i64 %32
  %34 = load i64, ptr %33, align 8
  store i64 %34, ptr %10, align 8
  %35 = load ptr, ptr %4, align 8
  store ptr %35, ptr %12, align 8
  store i64 0, ptr %11, align 8
  br label %36

36:                                               ; preds = %45, %28
  %37 = load i64, ptr %11, align 8
  %38 = icmp ult i64 %37, 8
  br i1 %38, label %39, label %50

39:                                               ; preds = %36
  %40 = load i64, ptr %10, align 8
  %41 = and i64 %40, 255
  %42 = trunc i64 %41 to i8
  %43 = load ptr, ptr %12, align 8
  %44 = getelementptr inbounds i8, ptr %43, i32 1
  store ptr %44, ptr %12, align 8
  store i8 %42, ptr %43, align 1
  br label %45

45:                                               ; preds = %39
  %46 = load i64, ptr %11, align 8
  %47 = add i64 %46, 1
  store i64 %47, ptr %11, align 8
  %48 = load i64, ptr %10, align 8
  %49 = lshr i64 %48, 8
  store i64 %49, ptr %10, align 8
  br label %36

50:                                               ; preds = %36
  br label %51

51:                                               ; preds = %57, %50
  %52 = load i64, ptr %11, align 8
  %53 = icmp ult i64 %52, 8
  br i1 %53, label %54, label %60

54:                                               ; preds = %51
  %55 = load ptr, ptr %12, align 8
  %56 = getelementptr inbounds i8, ptr %55, i32 1
  store ptr %56, ptr %12, align 8
  store i8 0, ptr %55, align 1
  br label %57

57:                                               ; preds = %54
  %58 = load i64, ptr %11, align 8
  %59 = add i64 %58, 1
  store i64 %59, ptr %11, align 8
  br label %51

60:                                               ; preds = %51
  %61 = load ptr, ptr %4, align 8
  %62 = getelementptr inbounds i8, ptr %61, i64 8
  store ptr %62, ptr %4, align 8
  br label %63

63:                                               ; preds = %60
  br label %64

64:                                               ; preds = %63
  %65 = load i32, ptr %9, align 4
  %66 = add i32 %65, 1
  store i32 %66, ptr %9, align 4
  br label %21

67:                                               ; preds = %21
  ret i32 0
}