; Function Attrs: nounwind uwtable
define internal noundef i32 @H5D__bt2_unfilt_encode(ptr noundef %0, ptr nocapture noundef readonly %1, ptr nocapture noundef readonly %2) #1 {
  %4 = alloca ptr, align 8
  store ptr %0, ptr %4, align 8
  %5 = getelementptr inbounds i8, ptr %2, i64 8
  %6 = load i64, ptr %5, align 8
  %7 = getelementptr inbounds i8, ptr %1, i64 272
  %8 = load i64, ptr %7, align 8
  call void @H5F_addr_encode_len(i64 noundef %6, ptr noundef nonnull %4, i64 noundef %8) #14
  %9 = getelementptr inbounds i8, ptr %2, i64 24
  %10 = load i32, ptr %9, align 8
  %.not = icmp eq i32 %10, 0
  br i1 %.not, label %._crit_edge, label %.lr.ph.preheader

.lr.ph.preheader:                                 ; preds = %3
  %.pre = load ptr, ptr %4, align 8
  br label %.lr.ph

.lr.ph:                                           ; preds = %.lr.ph.preheader, %19
  %11 = phi ptr [ %.pre, %.lr.ph.preheader ], [ %21, %19 ]
  %indvars.iv = phi i64 [ 0, %.lr.ph.preheader ], [ %indvars.iv.next, %19 ]
  %12 = getelementptr inbounds [33 x i64], ptr %1, i64 0, i64 %indvars.iv
  %13 = load i64, ptr %12, align 8
  br label %14

14:                                               ; preds = %.lr.ph, %14
  %.022 = phi ptr [ %11, %.lr.ph ], [ %16, %14 ]
  %.01621 = phi i64 [ 0, %.lr.ph ], [ %17, %14 ]
  %.01820 = phi i64 [ %13, %.lr.ph ], [ %18, %14 ]
  %15 = trunc i64 %.01820 to i8
  %16 = getelementptr inbounds i8, ptr %.022, i64 1
  store i8 %15, ptr %.022, align 1
  %17 = add nuw nsw i64 %.01621, 1
  %18 = lshr i64 %.01820, 8
  %exitcond.not = icmp eq i64 %17, 8
  br i1 %exitcond.not, label %19, label %14

19:                                               ; preds = %14
  %20 = load ptr, ptr %4, align 8
  %21 = getelementptr inbounds i8, ptr %20, i64 8
  store ptr %21, ptr %4, align 8
  %indvars.iv.next = add nuw nsw i64 %indvars.iv, 1
  %22 = load i32, ptr %9, align 8
  %23 = zext i32 %22 to i64
  %24 = icmp ult i64 %indvars.iv.next, %23
  br i1 %24, label %.lr.ph, label %._crit_edge

._crit_edge:                                      ; preds = %19, %3
  ret i32 0
}